; Function Attrs: mustprogress uwtable
define noundef double @_ZNK6icu_7510DateFormat5parseERKNS_13UnicodeStringER10UErrorCode(ptr noundef nonnull align 8 dereferenceable(352) %this, ptr noundef nonnull align 8 dereferenceable(64) %text, ptr nocapture noundef nonnull align 4 dereferenceable(4) %status) unnamed_addr #3 align 2 personality ptr @__gxx_personality_v0 {
entry:
  %ec.i = alloca i32, align 4
  %pos = alloca %"class.icu_75::ParsePosition", align 8
  %0 = load i32, ptr %status, align 4
  %cmp.i = icmp slt i32 %0, 1
  br i1 %cmp.i, label %if.end, label %return

if.end:                                           ; preds = %entry
  store ptr getelementptr inbounds ({ [5 x ptr] }, ptr @_ZTVN6icu_7513ParsePositionE, i64 0, i32 0, i64 2), ptr %pos, align 8
  %index.i = getelementptr inbounds i8, ptr %pos, i64 8
  store i32 0, ptr %index.i, align 8
  %errorIndex.i = getelementptr inbounds i8, ptr %pos, i64 12
  store i32 -1, ptr %errorIndex.i, align 4
  call void @llvm.lifetime.start.p0(i64 4, ptr nonnull %ec.i)
  %fCalendar.i = getelementptr inbounds i8, ptr %this, i64 328
  %1 = load ptr, ptr %fCalendar.i, align 8
  %cmp.not.i = icmp eq ptr %1, null
  br i1 %cmp.not.i, label %invoke.cont.thread, label %if.then.i

invoke.cont.thread:                               ; preds = %if.end
  call void @llvm.lifetime.end.p0(i64 4, ptr nonnull %ec.i)
  br label %if.then5

if.then.i:                                        ; preds = %if.end
  %vtable.i = load ptr, ptr %1, align 8
  %vfn.i = getelementptr inbounds i8, ptr %vtable.i, i64 24
  %2 = load ptr, ptr %vfn.i, align 8
  %call.i2 = invoke noundef ptr %2(ptr noundef nonnull align 8 dereferenceable(618) %1)
          to label %call.i.noexc unwind label %lpad

call.i.noexc:                                     ; preds = %if.then.i
  %cmp3.not.i = icmp eq ptr %call.i2, null
  %.pre6 = load i32, ptr %index.i, align 8
  br i1 %cmp3.not.i, label %invoke.cont, label %if.then4.i

if.then4.i:                                       ; preds = %call.i.noexc
  invoke void @_ZN6icu_758Calendar5clearEv(ptr noundef nonnull align 8 dereferenceable(618) %call.i2)
          to label %.noexc unwind label %lpad

.noexc:                                           ; preds = %if.then4.i
  %vtable6.i = load ptr, ptr %this, align 8
  %vfn7.i = getelementptr inbounds i8, ptr %vtable6.i, i64 88
  %3 = load ptr, ptr %vfn7.i, align 8
  invoke void %3(ptr noundef nonnull align 8 dereferenceable(352) %this, ptr noundef nonnull align 8 dereferenceable(64) %text, ptr noundef nonnull align 8 dereferenceable(618) %call.i2, ptr noundef nonnull align 8 dereferenceable(16) %pos)
          to label %.noexc3 unwind label %lpad

.noexc3:                                          ; preds = %.noexc
  %4 = load i32, ptr %index.i, align 8
  %cmp9.not.i = icmp eq i32 %4, %.pre6
  br i1 %cmp9.not.i, label %delete.notnull.i, label %if.then10.i

if.then10.i:                                      ; preds = %.noexc3
  store i32 0, ptr %ec.i, align 4
  %call.i.i4 = invoke noundef double @_ZNK6icu_758Calendar15getTimeInMillisER10UErrorCode(ptr noundef nonnull align 8 dereferenceable(618) %call.i2, ptr noundef nonnull align 4 dereferenceable(4) %ec.i)
          to label %call.i.i.noexc unwind label %lpad

call.i.i.noexc:                                   ; preds = %if.then10.i
  %5 = load i32, ptr %ec.i, align 4
  %cmp.i.i = icmp slt i32 %5, 1
  br i1 %cmp.i.i, label %delete.notnull.i, label %if.then13.i

if.then13.i:                                      ; preds = %call.i.i.noexc
  store i32 %.pre6, ptr %index.i, align 8
  store i32 %.pre6, ptr %errorIndex.i, align 4
  br label %delete.notnull.i

delete.notnull.i:                                 ; preds = %if.then13.i, %call.i.i.noexc, %.noexc3
  %d.0.i = phi double [ 0.000000e+00, %if.then13.i ], [ %call.i.i4, %call.i.i.noexc ], [ 0.000000e+00, %.noexc3 ]
  %vtable15.i = load ptr, ptr %call.i2, align 8
  %vfn16.i = getelementptr inbounds i8, ptr %vtable15.i, i64 8
  %6 = load ptr, ptr %vfn16.i, align 8
  call void %6(ptr noundef nonnull align 8 dereferenceable(618) %call.i2) #13
  %.pre = load i32, ptr %index.i, align 8
  br label %invoke.cont

invoke.cont:                                      ; preds = %delete.notnull.i, %call.i.noexc
  %7 = phi i32 [ %.pre, %delete.notnull.i ], [ %.pre6, %call.i.noexc ]
  %d.1.i = phi double [ %d.0.i, %delete.notnull.i ], [ 0.000000e+00, %call.i.noexc ]
  call void @llvm.lifetime.end.p0(i64 4, ptr nonnull %ec.i)
  %cmp = icmp eq i32 %7, 0
  br i1 %cmp, label %if.then5, label %if.end6

if.then5:                                         ; preds = %invoke.cont.thread, %invoke.cont
  %d.1.i10 = phi double [ 0.000000e+00, %invoke.cont.thread ], [ %d.1.i, %invoke.cont ]
  store i32 1, ptr %status, align 4
  br label %if.end6

lpad:                                             ; preds = %if.then10.i, %.noexc, %if.then4.i, %if.then.i
  %8 = landingpad { ptr, i32 }
          cleanup
  call void @_ZN6icu_7513ParsePositionD1Ev(ptr noundef nonnull align 8 dereferenceable(16) %pos) #13
  resume { ptr, i32 } %8

if.end6:                                          ; preds = %if.then5, %invoke.cont
  %d.1.i9 = phi double [ %d.1.i10, %if.then5 ], [ %d.1.i, %invoke.cont ]
  call void @_ZN6icu_7513ParsePositionD1Ev(ptr noundef nonnull align 8 dereferenceable(16) %pos) #13
  br label %return

return:                                           ; preds = %entry, %if.end6
  %retval.0 = phi double [ %d.1.i9, %if.end6 ], [ 0.000000e+00, %entry ]
  ret double %retval.0
}